target datalayout = "e-m:e-p270:32:32-p271:32:32-p272:64:64-i64:64-i128:128-f80:128-n8:16:32:64-S128"
target triple = "x86_64-pc-linux-gnu"

@UNKNOWN_ERROR = internal global ptr @.str.8, align 8

; Function Attrs: nounwind uwtable
define hidden void @errorExit(i32 noundef %0, ptr noundef %1) #0 {
  %3 = alloca i32, align 4
  %4 = alloca ptr, align 8
  store i32 %0, ptr %3, align 4
  store ptr %1, ptr %4, align 8
  %5 = load i32, ptr %3, align 4
  %6 = icmp ne i32 %5, 0
  br i1 %6, label %7, label %18

7:                                                ; preds = %2
  %8 = load i32, ptr %3, align 4
  %9 = call ptr @__errno_location() #8
  store i32 %8, ptr %9, align 4
  %10 = load ptr, ptr %4, align 8
  %11 = icmp ne ptr %10, null
  br i1 %11, label %12, label %14

12:                                               ; preds = %7
  %13 = load ptr, ptr %4, align 8
  br label %16

14:                                               ; preds = %7
  %15 = load ptr, ptr @UNKNOWN_ERROR, align 8
  br label %16

16:                                               ; preds = %14, %12
  %17 = phi ptr [ %13, %12 ], [ %15, %14 ]
  call void @perror(ptr noundef %17)
  br label %18

18:                                               ; preds = %16, %2
  %19 = load i32, ptr %3, align 4
  %20 = icmp eq i32 %19, 0
  %21 = select i1 %20, i32 0, i32 1
  call void @exit(i32 noundef %21) #11
  unreachable
}