; Function Attrs: noreturn nounwind uwtable
define hidden void @errorExit(i32 noundef %0, ptr noundef readonly %1) local_unnamed_addr #0 {
  %.not = icmp eq i32 %0, 0
  br i1 %.not, label %6, label %3

3:                                                ; preds = %2
  %4 = tail call ptr @__errno_location() #14
  store i32 %0, ptr %4, align 4
  %.not4 = icmp eq ptr %1, null
  %5 = select i1 %.not4, ptr @.str.8, ptr %1
  tail call void @perror(ptr noundef nonnull %5) #15
  br label %6

6:                                                ; preds = %3, %2
  %7 = icmp ne i32 %0, 0
  %8 = zext i1 %7 to i32
  tail call void @exit(i32 noundef %8) #16
  unreachable
}